; Function Attrs: mustprogress nounwind uwtable
define void @_ZN6icu_7515AlphabeticIndex6BucketD2Ev(ptr noundef nonnull align 8 dereferenceable(168) %this) unnamed_addr #0 align 2 {
entry:
  store ptr getelementptr inbounds ({ [5 x ptr] }, ptr @_ZTVN6icu_7515AlphabeticIndex6BucketE, i64 0, i32 0, i64 2), ptr %this, align 8
  %records_ = getelementptr inbounds i8, ptr %this, i64 160
  %0 = load ptr, ptr %records_, align 8
  %isnull = icmp eq ptr %0, null
  br i1 %isnull, label %delete.end, label %delete.notnull

delete.notnull:                                   ; preds = %entry
  %vtable = load ptr, ptr %0, align 8
  %vfn = getelementptr inbounds i8, ptr %vtable, i64 8
  %1 = load ptr, ptr %vfn, align 8
  tail call void %1(ptr noundef nonnull align 8 dereferenceable(40) %0) #16
  br label %delete.end

delete.end:                                       ; preds = %delete.notnull, %entry
  %lowerBoundary_ = getelementptr inbounds i8, ptr %this, i64 72
  tail call void @_ZN6icu_7513UnicodeStringD1Ev(ptr noundef nonnull align 8 dereferenceable(64) %lowerBoundary_) #16
  %label_ = getelementptr inbounds i8, ptr %this, i64 8
  tail call void @_ZN6icu_7513UnicodeStringD1Ev(ptr noundef nonnull align 8 dereferenceable(64) %label_) #16
  tail call void @_ZN6icu_757UObjectD2Ev(ptr noundef nonnull align 8 dereferenceable(8) %this) #16
  ret void
}